ARM GAS  C:\Users\elias\AppData\Local\Temp\ccFVvSSl.s 			page 1


   1              		.syntax unified
   2              		.cpu cortex-m3
   3              		.fpu softvfp
   4              		.eabi_attribute 20, 1
   5              		.eabi_attribute 21, 1
   6              		.eabi_attribute 23, 3
   7              		.eabi_attribute 24, 1
   8              		.eabi_attribute 25, 1
   9              		.eabi_attribute 26, 1
  10              		.eabi_attribute 30, 1
  11              		.eabi_attribute 34, 1
  12              		.eabi_attribute 18, 4
  13              		.thumb
  14              		.syntax unified
  15              		.file	"main.c"
  16              		.text
  17              	.Ltext0:
  18              		.cfi_sections	.debug_frame
  19              		.section	.text.Fin_Adq,"ax",%progbits
  20              		.align	2
  21              		.global	Fin_Adq
  22              		.thumb
  23              		.thumb_func
  24              		.type	Fin_Adq, %function
  25              	Fin_Adq:
  26              	.LFB66:
  27              		.file 1 "main.c"
   1:main.c        **** /* ========================================
   2:main.c        ****  *
   3:main.c        ****  * Copyright YOUR COMPANY, THE YEAR
   4:main.c        ****  * All Rights Reserved
   5:main.c        ****  * UNPUBLISHED, LICENSED SOFTWARE.
   6:main.c        ****  *
   7:main.c        ****  * CONFIDENTIAL AND PROPRIETARY INFORMATION
   8:main.c        ****  * WHICH IS THE PROPERTY OF your company.
   9:main.c        ****  *
  10:main.c        ****  * ========================================
  11:main.c        **** */
  12:main.c        **** #include "project.h"
  13:main.c        **** #include <stdio.h>
  14:main.c        **** #include "er.h"
  15:main.c        **** 
  16:main.c        **** 
  17:main.c        **** 
  18:main.c        **** #define LONGITUD 2000
  19:main.c        **** #define FILTER_1_DATA_ALIGN       (0x55u)
  20:main.c        **** 
  21:main.c        **** 
  22:main.c        **** /* Defines for DMA_1 */
  23:main.c        **** #define DMA_1_BYTES_PER_BURST 2
  24:main.c        **** #define DMA_1_REQUEST_PER_BURST 1
  25:main.c        **** #define DMA_1_SRC_BASE (CYDEV_PERIPH_BASE)
  26:main.c        **** #define DMA_1_DST_BASE (CYDEV_SRAM_BASE)
  27:main.c        **** 
  28:main.c        **** /* Defines for DMA_2 */
  29:main.c        **** #define DMA_2_BYTES_PER_BURST 2
  30:main.c        **** #define DMA_2_REQUEST_PER_BURST 1
ARM GAS  C:\Users\elias\AppData\Local\Temp\ccFVvSSl.s 			page 2


  31:main.c        **** #define DMA_2_SRC_BASE (CYDEV_PERIPH_BASE)
  32:main.c        **** #define DMA_2_DST_BASE (CYDEV_PERIPH_BASE)
  33:main.c        **** 
  34:main.c        **** /* Variable declarations for DMA_1 */
  35:main.c        **** /* Move these variable declarations to the top of the function */
  36:main.c        **** uint8 DMA_1_Chan;
  37:main.c        **** uint8 DMA_1_TD[1];
  38:main.c        **** 
  39:main.c        **** /* Variable declarations for DMA_2 */
  40:main.c        **** /* Move these variable declarations to the top of the function */
  41:main.c        **** uint8 DMA_2_Chan;
  42:main.c        **** uint8 DMA_2_TD[1];
  43:main.c        **** 
  44:main.c        **** 
  45:main.c        **** /*Declaraciones de las variables utilizadas */
  46:main.c        **** 
  47:main.c        **** int16 datos[LONGITUD];
  48:main.c        **** float y[LONGITUD];
  49:main.c        **** uint8 flag = '0';
  50:main.c        **** uint j;
  51:main.c        **** 
  52:main.c        **** 
  53:main.c        **** /*Prototipo de las funciones utilizadas*/
  54:main.c        **** CY_ISR(Fin_Adq);
  55:main.c        **** CY_ISR(RxIsr);
  56:main.c        **** 
  57:main.c        **** void my_Start(void);
  58:main.c        **** void DMA_Config(void);
  59:main.c        **** 
  60:main.c        **** 
  61:main.c        **** int main(void)
  62:main.c        **** {
  63:main.c        ****     my_Start();
  64:main.c        ****     DMA_Config();
  65:main.c        ****     
  66:main.c        ****      //Punteros a la rutinas de interrupción  
  67:main.c        ****     #if(INTERRUPT_CODE_ENABLED == ENABLED)
  68:main.c        ****     isr_Fin_Adq_StartEx(Fin_Adq);    
  69:main.c        ****     //isr_rx_StartEx(RxIsr);
  70:main.c        ****     #endif /* INTERRUPT_CODE_ENABLED == ENABLED */
  71:main.c        ****     CyDelay(50);  
  72:main.c        ****     CyGlobalIntEnable; /* Enable global interrupts. */
  73:main.c        ****     //isr_rx_Enable();
  74:main.c        ****     //Se deshabilita la adquisicion
  75:main.c        ****     Reg_Hab_Adq_Write(1u);
  76:main.c        ****     isr_Fin_Adq_Disable();    
  77:main.c        ****     /* Place your initialization/startup code here (e.g. MyInst_Start()) */
  78:main.c        ****     
  79:main.c        ****     
  80:main.c        ****     for(;;)
  81:main.c        ****     {
  82:main.c        ****         switch (flag)
  83:main.c        ****         {
  84:main.c        ****         case '0':
  85:main.c        ****             //printf("%c\r\n",flag); 
  86:main.c        ****             //Se espera el flanco que conmuta el flip flop
  87:main.c        ****             Reg_Hab_Adq_Write(0u);
ARM GAS  C:\Users\elias\AppData\Local\Temp\ccFVvSSl.s 			page 3


  88:main.c        ****             isr_Fin_Adq_Enable();
  89:main.c        ****             //ADC_DelSig_1_Start();
  90:main.c        ****             flag = '1';
  91:main.c        ****             break;
  92:main.c        ****         
  93:main.c        ****         case '1':
  94:main.c        ****             //Se espera la finalizacion de la adquisicion                
  95:main.c        ****             break;
  96:main.c        ****             
  97:main.c        ****         case '2':
  98:main.c        ****             //Finalizo la adquisicion y se transmiten los datos
  99:main.c        ****             Reg_Hab_Adq_Write(1u);
 100:main.c        ****             isr_Fin_Adq_Disable();
 101:main.c        ****             
 102:main.c        ****             //Se envia la señal digitalizada por el puerto serie               
 103:main.c        ****             for(j=0; j<(sizeof(y)/sizeof(y[0])); j++)
 104:main.c        ****             { 
 105:main.c        ****                 y[j] = ADC_SAR_1_CountsTo_Volts(datos[j]); 
 106:main.c        ****                 //y[j] = ADC_DelSig_1_CountsTo_Volts(datos[j]);
 107:main.c        ****                 Chart_1_Plot(y[j]);
 108:main.c        ****             }
 109:main.c        ****             //envBytesChecksum((uint8_t*)datos, LONGITUD*2,UART_1_PutChar);
 110:main.c        ****             
 111:main.c        ****             //Se reinicia la maquina de estados. 
 112:main.c        ****             flag = '0';
 113:main.c        ****             
 114:main.c        ****             break;           
 115:main.c        ****         }         
 116:main.c        ****         
 117:main.c        ****     }
 118:main.c        **** }   
 119:main.c        **** 
 120:main.c        **** 
 121:main.c        **** void my_Start()
 122:main.c        **** {
 123:main.c        **** //Se deben instanciar los componentes
 124:main.c        **** //Los analógicos
 125:main.c        ****     TIA_1_Start();
 126:main.c        ****     TIA_2_Start();
 127:main.c        ****     ADC_SAR_1_Start();
 128:main.c        ****     //ADC_DelSig_1_Start();
 129:main.c        ****     Opamp_1_Start();
 130:main.c        ****     //Opamp_2_Start();
 131:main.c        ****     
 132:main.c        **** //     Filter_1_Start();
 133:main.c        **** //    //Para que el filtro pueda manejar 
 134:main.c        **** //    //una resolución de 9-16 bits, el registro de coherencia debe ser mid, Dalign debe estar hab
 135:main.c        **** //    Filter_1_SetDalign(Filter_1_STAGEA_DALIGN, Filter_1_ENABLED);
 136:main.c        **** //    Filter_1_SetDalign(Filter_1_HOLDA_DALIGN, Filter_1_ENABLED);
 137:main.c        **** //    Filter_1_SetDalign(Filter_1_STAGEB_DALIGN, Filter_1_ENABLED);
 138:main.c        **** //    Filter_1_SetDalign(Filter_1_HOLDB_DALIGN, Filter_1_ENABLED);
 139:main.c        **** //    Filter_1_DALIGN_REG =  Filter_1_DALIGN_REG | FILTER_1_DATA_ALIGN;
 140:main.c        **** //     
 141:main.c        **** //    Filter_1_SetCoherency(Filter_1_CHANNEL_A,Filter_1_KEY_MID );
 142:main.c        **** //    Filter_1_SetCoherency(Filter_1_CHANNEL_B,Filter_1_KEY_MID );
 143:main.c        **** //	Filter_1_SetCoherency(Filter_1_STAGEA_COHER,Filter_1_KEY_MID );
 144:main.c        **** //	Filter_1_SetCoherency(Filter_1_STAGEB_COHER,Filter_1_KEY_MID ); 
ARM GAS  C:\Users\elias\AppData\Local\Temp\ccFVvSSl.s 			page 4


 145:main.c        **** //    Filter_1_SetCoherency(Filter_1_HOLDA_COHER,Filter_1_KEY_MID ); 
 146:main.c        **** //    Filter_1_SetCoherency(Filter_1_HOLDB_COHER,Filter_1_KEY_MID );     
 147:main.c        ****     
 148:main.c        ****  //Los digitales
 149:main.c        ****     Clock_ADC_Start();
 150:main.c        ****     Clock_Trig_Start();
 151:main.c        ****     UART_1_Start();
 152:main.c        **** }
 153:main.c        **** 
 154:main.c        **** 
 155:main.c        **** 
 156:main.c        **** //Rutinas de interrupción
 157:main.c        **** CY_ISR(Fin_Adq){   
  28              		.loc 1 157 0
  29              		.cfi_startproc
  30              		@ args = 0, pretend = 0, frame = 0
  31              		@ frame_needed = 0, uses_anonymous_args = 0
  32 0000 08B5     		push	{r3, lr}
  33              		.cfi_def_cfa_offset 8
  34              		.cfi_offset 3, -8
  35              		.cfi_offset 14, -4
 158:main.c        ****     //Se inicia el convertidor
 159:main.c        ****     flag = '2';
  36              		.loc 1 159 0
  37 0002 3222     		movs	r2, #50
  38 0004 024B     		ldr	r3, .L3
  39 0006 1A70     		strb	r2, [r3]
 160:main.c        ****     //ADC_DelSig_1_Stop();
 161:main.c        ****     isr_Fin_Adq_ClearPending();  
  40              		.loc 1 161 0
  41 0008 FFF7FEFF 		bl	isr_Fin_Adq_ClearPending
  42              	.LVL0:
  43 000c 08BD     		pop	{r3, pc}
  44              	.L4:
  45 000e 00BF     		.align	2
  46              	.L3:
  47 0010 00000000 		.word	.LANCHOR0
  48              		.cfi_endproc
  49              	.LFE66:
  50              		.size	Fin_Adq, .-Fin_Adq
  51              		.section	.text.my_Start,"ax",%progbits
  52              		.align	2
  53              		.global	my_Start
  54              		.thumb
  55              		.thumb_func
  56              		.type	my_Start, %function
  57              	my_Start:
  58              	.LFB65:
 122:main.c        **** //Se deben instanciar los componentes
  59              		.loc 1 122 0
  60              		.cfi_startproc
  61              		@ args = 0, pretend = 0, frame = 0
  62              		@ frame_needed = 0, uses_anonymous_args = 0
  63 0000 08B5     		push	{r3, lr}
  64              		.cfi_def_cfa_offset 8
  65              		.cfi_offset 3, -8
  66              		.cfi_offset 14, -4
ARM GAS  C:\Users\elias\AppData\Local\Temp\ccFVvSSl.s 			page 5


 125:main.c        ****     TIA_2_Start();
  67              		.loc 1 125 0
  68 0002 FFF7FEFF 		bl	TIA_1_Start
  69              	.LVL1:
 126:main.c        ****     ADC_SAR_1_Start();
  70              		.loc 1 126 0
  71 0006 FFF7FEFF 		bl	TIA_2_Start
  72              	.LVL2:
 127:main.c        ****     //ADC_DelSig_1_Start();
  73              		.loc 1 127 0
  74 000a FFF7FEFF 		bl	ADC_SAR_1_Start
  75              	.LVL3:
 129:main.c        ****     //Opamp_2_Start();
  76              		.loc 1 129 0
  77 000e FFF7FEFF 		bl	Opamp_1_Start
  78              	.LVL4:
 149:main.c        ****     Clock_Trig_Start();
  79              		.loc 1 149 0
  80 0012 FFF7FEFF 		bl	Clock_ADC_Start
  81              	.LVL5:
 150:main.c        ****     UART_1_Start();
  82              		.loc 1 150 0
  83 0016 FFF7FEFF 		bl	Clock_Trig_Start
  84              	.LVL6:
 151:main.c        **** }
  85              		.loc 1 151 0
  86 001a FFF7FEFF 		bl	UART_1_Start
  87              	.LVL7:
  88 001e 08BD     		pop	{r3, pc}
  89              		.cfi_endproc
  90              	.LFE65:
  91              		.size	my_Start, .-my_Start
  92              		.section	.text.DMA_Config,"ax",%progbits
  93              		.align	2
  94              		.global	DMA_Config
  95              		.thumb
  96              		.thumb_func
  97              		.type	DMA_Config, %function
  98              	DMA_Config:
  99              	.LFB67:
 162:main.c        **** }
 163:main.c        **** 
 164:main.c        **** 
 165:main.c        **** void DMA_Config(){
 100              		.loc 1 165 0
 101              		.cfi_startproc
 102              		@ args = 0, pretend = 0, frame = 0
 103              		@ frame_needed = 0, uses_anonymous_args = 0
 104 0000 38B5     		push	{r3, r4, r5, lr}
 105              		.cfi_def_cfa_offset 16
 106              		.cfi_offset 3, -16
 107              		.cfi_offset 4, -12
 108              		.cfi_offset 5, -8
 109              		.cfi_offset 14, -4
 166:main.c        **** 
 167:main.c        **** ///* DMA Configuration for DMA_1*/
 168:main.c        **** DMA_1_Chan = DMA_1_DmaInitialize(DMA_1_BYTES_PER_BURST, DMA_1_REQUEST_PER_BURST, 
ARM GAS  C:\Users\elias\AppData\Local\Temp\ccFVvSSl.s 			page 6


 110              		.loc 1 168 0
 111 0002 41F6FF73 		movw	r3, #8191
 112 0006 4FF48042 		mov	r2, #16384
 113 000a 0121     		movs	r1, #1
 114 000c 0220     		movs	r0, #2
 115 000e FFF7FEFF 		bl	DMA_1_DmaInitialize
 116              	.LVL8:
 117 0012 0E4C     		ldr	r4, .L9
 118 0014 2070     		strb	r0, [r4]
 169:main.c        ****     HI16(DMA_1_SRC_BASE), HI16(DMA_1_DST_BASE));
 170:main.c        **** DMA_1_TD[0] = CyDmaTdAllocate();
 119              		.loc 1 170 0
 120 0016 FFF7FEFF 		bl	CyDmaTdAllocate
 121              	.LVL9:
 122 001a 0246     		mov	r2, r0
 123 001c 0C4D     		ldr	r5, .L9+4
 124 001e 2870     		strb	r0, [r5]
 171:main.c        **** CyDmaTdSetConfiguration(DMA_1_TD[0], 2*LONGITUD, DMA_1_TD[0], DMA_1__TD_TERMOUT_EN | CY_DMA_TD_INC_
 125              		.loc 1 171 0
 126 0020 0623     		movs	r3, #6
 127 0022 4FF47A61 		mov	r1, #4000
 128 0026 FFF7FEFF 		bl	CyDmaTdSetConfiguration
 129              	.LVL10:
 172:main.c        **** CyDmaTdSetAddress(DMA_1_TD[0], LO16((uint32)ADC_SAR_1_SAR_WRK0_PTR), LO16((uint32)datos));
 130              		.loc 1 172 0
 131 002a 0A4A     		ldr	r2, .L9+8
 132 002c 92B2     		uxth	r2, r2
 133 002e 45F6A231 		movw	r1, #23458
 134 0032 2878     		ldrb	r0, [r5]	@ zero_extendqisi2
 135 0034 FFF7FEFF 		bl	CyDmaTdSetAddress
 136              	.LVL11:
 173:main.c        **** //CyDmaTdSetAddress(DMA_1_TD[0], LO16((uint32)ADC_DelSig_1_DEC_SAMP_PTR), LO16((uint32)datos));
 174:main.c        **** CyDmaChSetInitialTd(DMA_1_Chan, DMA_1_TD[0]);
 137              		.loc 1 174 0
 138 0038 2978     		ldrb	r1, [r5]	@ zero_extendqisi2
 139 003a 2078     		ldrb	r0, [r4]	@ zero_extendqisi2
 140 003c FFF7FEFF 		bl	CyDmaChSetInitialTd
 141              	.LVL12:
 175:main.c        **** CyDmaChEnable(DMA_1_Chan, 1);
 142              		.loc 1 175 0
 143 0040 0121     		movs	r1, #1
 144 0042 2078     		ldrb	r0, [r4]	@ zero_extendqisi2
 145 0044 FFF7FEFF 		bl	CyDmaChEnable
 146              	.LVL13:
 147 0048 38BD     		pop	{r3, r4, r5, pc}
 148              	.L10:
 149 004a 00BF     		.align	2
 150              	.L9:
 151 004c 00000000 		.word	DMA_1_Chan
 152 0050 00000000 		.word	DMA_1_TD
 153 0054 00000000 		.word	datos
 154              		.cfi_endproc
 155              	.LFE67:
 156              		.size	DMA_Config, .-DMA_Config
 157              		.section	.text.main,"ax",%progbits
 158              		.align	2
 159              		.global	main
ARM GAS  C:\Users\elias\AppData\Local\Temp\ccFVvSSl.s 			page 7


 160              		.thumb
 161              		.thumb_func
 162              		.type	main, %function
 163              	main:
 164              	.LFB64:
  62:main.c        ****     my_Start();
 165              		.loc 1 62 0
 166              		.cfi_startproc
 167              		@ Volatile: function does not return.
 168              		@ args = 0, pretend = 0, frame = 0
 169              		@ frame_needed = 0, uses_anonymous_args = 0
 170 0000 08B5     		push	{r3, lr}
 171              		.cfi_def_cfa_offset 8
 172              		.cfi_offset 3, -8
 173              		.cfi_offset 14, -4
  63:main.c        ****     DMA_Config();
 174              		.loc 1 63 0
 175 0002 FFF7FEFF 		bl	my_Start
 176              	.LVL14:
  64:main.c        ****     
 177              		.loc 1 64 0
 178 0006 FFF7FEFF 		bl	DMA_Config
 179              	.LVL15:
  68:main.c        ****     //isr_rx_StartEx(RxIsr);
 180              		.loc 1 68 0
 181 000a 1F48     		ldr	r0, .L20
 182 000c FFF7FEFF 		bl	isr_Fin_Adq_StartEx
 183              	.LVL16:
  71:main.c        ****     CyGlobalIntEnable; /* Enable global interrupts. */
 184              		.loc 1 71 0
 185 0010 3220     		movs	r0, #50
 186 0012 FFF7FEFF 		bl	CyDelay
 187              	.LVL17:
  72:main.c        ****     //isr_rx_Enable();
 188              		.loc 1 72 0
 189              		.syntax unified
 190              	@ 72 "main.c" 1
 191 0016 62B6     		CPSIE   i
 192              	@ 0 "" 2
  75:main.c        ****     isr_Fin_Adq_Disable();    
 193              		.loc 1 75 0
 194              		.thumb
 195              		.syntax unified
 196 0018 0120     		movs	r0, #1
 197 001a FFF7FEFF 		bl	Reg_Hab_Adq_Write
 198              	.LVL18:
  76:main.c        ****     /* Place your initialization/startup code here (e.g. MyInst_Start()) */
 199              		.loc 1 76 0
 200 001e FFF7FEFF 		bl	isr_Fin_Adq_Disable
 201              	.LVL19:
 202              	.L13:
  82:main.c        ****         {
 203              		.loc 1 82 0
 204 0022 1A4B     		ldr	r3, .L20+4
 205 0024 1B78     		ldrb	r3, [r3]	@ zero_extendqisi2
 206 0026 302B     		cmp	r3, #48
 207 0028 02D0     		beq	.L14
ARM GAS  C:\Users\elias\AppData\Local\Temp\ccFVvSSl.s 			page 8


 208 002a 322B     		cmp	r3, #50
 209 002c 09D0     		beq	.L15
 210 002e F8E7     		b	.L13
 211              	.L14:
  87:main.c        ****             isr_Fin_Adq_Enable();
 212              		.loc 1 87 0
 213 0030 0020     		movs	r0, #0
 214 0032 FFF7FEFF 		bl	Reg_Hab_Adq_Write
 215              	.LVL20:
  88:main.c        ****             //ADC_DelSig_1_Start();
 216              		.loc 1 88 0
 217 0036 FFF7FEFF 		bl	isr_Fin_Adq_Enable
 218              	.LVL21:
  90:main.c        ****             break;
 219              		.loc 1 90 0
 220 003a 3122     		movs	r2, #49
 221 003c 134B     		ldr	r3, .L20+4
 222 003e 1A70     		strb	r2, [r3]
  91:main.c        ****         
 223              		.loc 1 91 0
 224 0040 EFE7     		b	.L13
 225              	.L15:
  99:main.c        ****             isr_Fin_Adq_Disable();
 226              		.loc 1 99 0
 227 0042 0120     		movs	r0, #1
 228 0044 FFF7FEFF 		bl	Reg_Hab_Adq_Write
 229              	.LVL22:
 100:main.c        ****             
 230              		.loc 1 100 0
 231 0048 FFF7FEFF 		bl	isr_Fin_Adq_Disable
 232              	.LVL23:
 103:main.c        ****             { 
 233              		.loc 1 103 0
 234 004c 0022     		movs	r2, #0
 235 004e 104B     		ldr	r3, .L20+8
 236 0050 1A60     		str	r2, [r3]
 237 0052 10E0     		b	.L17
 238              	.L18:
 105:main.c        ****                 //y[j] = ADC_DelSig_1_CountsTo_Volts(datos[j]);
 239              		.loc 1 105 0 discriminator 3
 240 0054 0F4B     		ldr	r3, .L20+12
 241 0056 33F91400 		ldrsh	r0, [r3, r4, lsl #1]
 242 005a FFF7FEFF 		bl	ADC_SAR_1_CountsTo_Volts
 243              	.LVL24:
 244 005e 0E4B     		ldr	r3, .L20+16
 245 0060 43F82400 		str	r0, [r3, r4, lsl #2]	@ float
 107:main.c        ****             }
 246              		.loc 1 107 0 discriminator 3
 247 0064 0A4C     		ldr	r4, .L20+8
 248 0066 2268     		ldr	r2, [r4]
 249 0068 53F82200 		ldr	r0, [r3, r2, lsl #2]	@ float
 250 006c FFF7FEFF 		bl	Chart_1_Plot
 251              	.LVL25:
 103:main.c        ****             { 
 252              		.loc 1 103 0 discriminator 3
 253 0070 2368     		ldr	r3, [r4]
 254 0072 0133     		adds	r3, r3, #1
ARM GAS  C:\Users\elias\AppData\Local\Temp\ccFVvSSl.s 			page 9


 255 0074 2360     		str	r3, [r4]
 256              	.L17:
 103:main.c        ****             { 
 257              		.loc 1 103 0 is_stmt 0 discriminator 1
 258 0076 064B     		ldr	r3, .L20+8
 259 0078 1C68     		ldr	r4, [r3]
 260 007a B4F5FA6F 		cmp	r4, #2000
 261 007e E9D3     		bcc	.L18
 112:main.c        ****             
 262              		.loc 1 112 0 is_stmt 1
 263 0080 3022     		movs	r2, #48
 264 0082 024B     		ldr	r3, .L20+4
 265 0084 1A70     		strb	r2, [r3]
 114:main.c        ****         }         
 266              		.loc 1 114 0
 267 0086 CCE7     		b	.L13
 268              	.L21:
 269              		.align	2
 270              	.L20:
 271 0088 00000000 		.word	Fin_Adq
 272 008c 00000000 		.word	.LANCHOR0
 273 0090 00000000 		.word	j
 274 0094 00000000 		.word	datos
 275 0098 00000000 		.word	y
 276              		.cfi_endproc
 277              	.LFE64:
 278              		.size	main, .-main
 279              		.comm	j,4,4
 280              		.global	flag
 281              		.comm	y,8000,4
 282              		.comm	datos,4000,4
 283              		.comm	DMA_2_TD,1,4
 284              		.comm	DMA_2_Chan,1,1
 285              		.comm	DMA_1_TD,1,4
 286              		.comm	DMA_1_Chan,1,1
 287              		.data
 288              		.set	.LANCHOR0,. + 0
 289              		.type	flag, %object
 290              		.size	flag, 1
 291              	flag:
 292 0000 30       		.byte	48
 293              		.text
 294              	.Letext0:
 295              		.file 2 "c:\\program files (x86)\\cypress\\psoc creator\\4.4\\psoc creator\\import\\gnu\\arm\\5.4.
 296              		.file 3 "c:\\program files (x86)\\cypress\\psoc creator\\4.4\\psoc creator\\import\\gnu\\arm\\5.4.
 297              		.file 4 "Generated_Source\\PSoC5/cytypes.h"
 298              		.file 5 "c:\\program files (x86)\\cypress\\psoc creator\\4.4\\psoc creator\\import\\gnu\\arm\\5.4.
 299              		.file 6 "Generated_Source\\PSoC5/core_cm3.h"
 300              		.file 7 "Generated_Source\\PSoC5/isr_Fin_Adq.h"
 301              		.file 8 "Generated_Source\\PSoC5/TIA_1.h"
 302              		.file 9 "Generated_Source\\PSoC5/TIA_2.h"
 303              		.file 10 "Generated_Source\\PSoC5/ADC_SAR_1.h"
 304              		.file 11 "Generated_Source\\PSoC5/Opamp_1.h"
 305              		.file 12 "Generated_Source\\PSoC5/Clock_ADC.h"
 306              		.file 13 "Generated_Source\\PSoC5/Clock_Trig.h"
 307              		.file 14 "Generated_Source\\PSoC5/UART_1.h"
 308              		.file 15 "Generated_Source\\PSoC5/DMA_1_dma.h"
ARM GAS  C:\Users\elias\AppData\Local\Temp\ccFVvSSl.s 			page 10


 309              		.file 16 "Generated_Source\\PSoC5/CYDMAC.H"
 310              		.file 17 "Generated_Source\\PSoC5/CyLib.h"
 311              		.file 18 "Generated_Source\\PSoC5/Reg_Hab_Adq.h"
 312              		.file 19 "Generated_Source\\PSoC5/Chart_1.h"